target datalayout = "e-m:e-p270:32:32-p271:32:32-p272:64:64-i64:64-i128:128-f80:128-n8:16:32:64-S128"
target triple = "x86_64-pc-linux-gnu"

%struct.StandardFilters = type { i32, i32, i32 }
%struct.VM_PreparedProgram = type <{ i32, [7 x i32], ptr, i32, [4 x i8] }>

; Function Attrs: mustprogress uwtable
define void @_ZN5RarVM7PrepareEPhjP18VM_PreparedProgram(ptr noundef nonnull align 8 dereferenceable(40) %0, ptr noundef %1, i32 noundef %2, ptr noundef %3) #2 align 2 {
  %5 = alloca ptr, align 8
  %6 = alloca ptr, align 8
  %7 = alloca i32, align 4
  %8 = alloca ptr, align 8
  %9 = alloca i8, align 1
  %10 = alloca i32, align 4
  %11 = alloca i32, align 4
  %12 = alloca i32, align 4
  store ptr %0, ptr %5, align 8
  store ptr %1, ptr %6, align 8
  store i32 %2, ptr %7, align 4
  store ptr %3, ptr %8, align 8
  store i8 0, ptr %9, align 1
  store i32 1, ptr %10, align 4
  br label %13

13:                                               ; preds = %28, %4
  %14 = load i32, ptr %10, align 4
  %15 = load i32, ptr %7, align 4
  %16 = icmp ult i32 %14, %15
  br i1 %16, label %17, label %31

17:                                               ; preds = %13
  %18 = load ptr, ptr %6, align 8
  %19 = load i32, ptr %10, align 4
  %20 = zext i32 %19 to i64
  %21 = getelementptr inbounds i8, ptr %18, i64 %20
  %22 = load i8, ptr %21, align 1
  %23 = zext i8 %22 to i32
  %24 = load i8, ptr %9, align 1
  %25 = zext i8 %24 to i32
  %26 = xor i32 %25, %23
  %27 = trunc i32 %26 to i8
  store i8 %27, ptr %9, align 1
  br label %28

28:                                               ; preds = %17
  %29 = load i32, ptr %10, align 4
  %30 = add i32 %29, 1
  store i32 %30, ptr %10, align 4
  br label %13, !llvm.loop !16

31:                                               ; preds = %13
  %32 = load i8, ptr %9, align 1
  %33 = zext i8 %32 to i32
  %34 = load ptr, ptr %6, align 8
  %35 = getelementptr inbounds i8, ptr %34, i64 0
  %36 = load i8, ptr %35, align 1
  %37 = zext i8 %36 to i32
  %38 = icmp ne i32 %33, %37
  br i1 %38, label %39, label %40

39:                                               ; preds = %31
  br label %78

40:                                               ; preds = %31
  %41 = load ptr, ptr %6, align 8
  %42 = load i32, ptr %7, align 4
  %43 = zext i32 %42 to i64
  %44 = call noundef i32 @_Z5CRC32jPKvm(i32 noundef -1, ptr noundef %41, i64 noundef %43)
  %45 = xor i32 %44, -1
  store i32 %45, ptr %11, align 4
  store i32 0, ptr %12, align 4
  br label %46

46:                                               ; preds = %75, %40
  %47 = load i32, ptr %12, align 4
  %48 = zext i32 %47 to i64
  %49 = icmp ult i64 %48, 6
  br i1 %49, label %50, label %78

50:                                               ; preds = %46
  %51 = load i32, ptr %12, align 4
  %52 = zext i32 %51 to i64
  %53 = getelementptr inbounds [6 x %struct.StandardFilters], ptr @_ZZN5RarVM7PrepareEPhjP18VM_PreparedProgramE7StdList, i64 0, i64 %52
  %54 = getelementptr inbounds %struct.StandardFilters, ptr %53, i32 0, i32 1
  %55 = load i32, ptr %54, align 4
  %56 = load i32, ptr %11, align 4
  %57 = icmp eq i32 %55, %56
  br i1 %57, label %58, label %74

58:                                               ; preds = %50
  %59 = load i32, ptr %12, align 4
  %60 = zext i32 %59 to i64
  %61 = getelementptr inbounds [6 x %struct.StandardFilters], ptr @_ZZN5RarVM7PrepareEPhjP18VM_PreparedProgramE7StdList, i64 0, i64 %60
  %62 = getelementptr inbounds %struct.StandardFilters, ptr %61, i32 0, i32 0
  %63 = load i32, ptr %62, align 4
  %64 = load i32, ptr %7, align 4
  %65 = icmp eq i32 %63, %64
  br i1 %65, label %66, label %74

66:                                               ; preds = %58
  %67 = load i32, ptr %12, align 4
  %68 = zext i32 %67 to i64
  %69 = getelementptr inbounds [6 x %struct.StandardFilters], ptr @_ZZN5RarVM7PrepareEPhjP18VM_PreparedProgramE7StdList, i64 0, i64 %68
  %70 = getelementptr inbounds %struct.StandardFilters, ptr %69, i32 0, i32 2
  %71 = load i32, ptr %70, align 4
  %72 = load ptr, ptr %8, align 8
  %73 = getelementptr inbounds %struct.VM_PreparedProgram, ptr %72, i32 0, i32 0
  store i32 %71, ptr %73, align 8
  br label %78

74:                                               ; preds = %58, %50
  br label %75

75:                                               ; preds = %74
  %76 = load i32, ptr %12, align 4
  %77 = add i32 %76, 1
  store i32 %77, ptr %12, align 4
  br label %46, !llvm.loop !17

78:                                               ; preds = %66, %46, %39
  ret void
}