; Function Attrs: mustprogress uwtable
define void @_ZN5RarVM7PrepareEPhjP18VM_PreparedProgram(ptr nocapture noundef nonnull readnone align 8 dereferenceable(40) %0, ptr noundef %1, i32 noundef %2, ptr nocapture noundef writeonly %3) local_unnamed_addr #3 align 2 {
  %5 = icmp ugt i32 %2, 1
  br i1 %5, label %.lr.ph.preheader, label %._crit_edge

.lr.ph.preheader:                                 ; preds = %4
  %wide.trip.count = zext i32 %2 to i64
  br label %.lr.ph

.lr.ph:                                           ; preds = %.lr.ph.preheader, %.lr.ph
  %indvars.iv = phi i64 [ 1, %.lr.ph.preheader ], [ %indvars.iv.next, %.lr.ph ]
  %.01722 = phi i8 [ 0, %.lr.ph.preheader ], [ %8, %.lr.ph ]
  %6 = getelementptr inbounds i8, ptr %1, i64 %indvars.iv
  %7 = load i8, ptr %6, align 1
  %8 = xor i8 %7, %.01722
  %indvars.iv.next = add nuw nsw i64 %indvars.iv, 1
  %exitcond.not = icmp eq i64 %indvars.iv.next, %wide.trip.count
  br i1 %exitcond.not, label %._crit_edge, label %.lr.ph, !llvm.loop !17

._crit_edge:                                      ; preds = %.lr.ph, %4
  %.017.lcssa = phi i8 [ 0, %4 ], [ %8, %.lr.ph ]
  %9 = load i8, ptr %1, align 1
  %.not = icmp eq i8 %.017.lcssa, %9
  br i1 %.not, label %10, label %.loopexit

10:                                               ; preds = %._crit_edge
  %11 = zext i32 %2 to i64
  %12 = tail call noundef i32 @_Z5CRC32jPKvm(i32 noundef -1, ptr noundef nonnull %1, i64 noundef %11)
  br label %13

13:                                               ; preds = %10, %25
  %indvars.iv26 = phi i64 [ 0, %10 ], [ %indvars.iv.next27, %25 ]
  %14 = getelementptr inbounds [6 x %struct.StandardFilters], ptr @_ZZN5RarVM7PrepareEPhjP18VM_PreparedProgramE7StdList, i64 0, i64 %indvars.iv26
  %15 = getelementptr inbounds i8, ptr %14, i64 4
  %16 = load i32, ptr %15, align 4
  %17 = xor i32 %16, %12
  %18 = icmp eq i32 %17, -1
  br i1 %18, label %19, label %25

19:                                               ; preds = %13
  %20 = load i32, ptr %14, align 4
  %21 = icmp eq i32 %20, %2
  br i1 %21, label %22, label %25

22:                                               ; preds = %19
  %23 = getelementptr inbounds i8, ptr %14, i64 8
  %24 = load i32, ptr %23, align 4
  store i32 %24, ptr %3, align 8
  br label %.loopexit

25:                                               ; preds = %13, %19
  %indvars.iv.next27 = add nuw nsw i64 %indvars.iv26, 1
  %exitcond29.not = icmp eq i64 %indvars.iv.next27, 6
  br i1 %exitcond29.not, label %.loopexit, label %13, !llvm.loop !18

.loopexit:                                        ; preds = %25, %._crit_edge, %22
  ret void
}